; Function Attrs: mustprogress uwtable
define hidden void @_ZN3nla8monotone18monotonicity_lemmaEv(ptr noundef nonnull align 8 dereferenceable(184) %0) local_unnamed_addr #4 align 2 {
  %2 = tail call noundef i32 @_ZN3nla6common6randomEv(ptr noundef nonnull align 8 dereferenceable(184) %0)
  %3 = load ptr, ptr %0, align 8, !tbaa !8
  %4 = getelementptr inbounds nuw i8, ptr %3, i64 288
  %5 = load i32, ptr %4, align 8, !tbaa !37
  %.not = icmp eq i32 %5, 0
  br i1 %.not, label %.critedge, label %.lr.ph

.lr.ph:                                           ; preds = %1, %7
  %.08 = phi i32 [ %25, %7 ], [ 0, %1 ]
  %6 = tail call noundef zeroext i1 @_ZNK3nla6common4doneEv(ptr noundef nonnull align 8 dereferenceable(184) %0)
  br i1 %6, label %.critedge, label %7

.critedge:                                        ; preds = %.lr.ph, %7, %1
  ret void

7:                                                ; preds = %.lr.ph
  %8 = load ptr, ptr %0, align 8, !tbaa !8
  %9 = add i32 %.08, %2
  %10 = urem i32 %9, %5
  %11 = getelementptr inbounds nuw i8, ptr %8, i64 296
  %12 = load ptr, ptr %11, align 8, !tbaa !39
  %13 = zext i32 %10 to i64
  %14 = getelementptr inbounds nuw i32, ptr %12, i64 %13
  %15 = load i32, ptr %14, align 4, !tbaa !40
  %16 = getelementptr inbounds nuw i8, ptr %8, i64 4544
  %17 = getelementptr inbounds nuw i8, ptr %8, i64 4552
  %18 = load ptr, ptr %17, align 8, !tbaa !39
  %19 = zext i32 %15 to i64
  %20 = getelementptr inbounds nuw i32, ptr %18, i64 %19
  %21 = load i32, ptr %20, align 4, !tbaa !40
  %22 = load ptr, ptr %16, align 8, !tbaa !41
  %23 = zext i32 %21 to i64
  %24 = getelementptr inbounds nuw %"class.nla::monic", ptr %22, i64 %23
  tail call void @_ZN3nla8monotone18monotonicity_lemmaERKNS_5monicE(ptr noundef nonnull align 8 dereferenceable(184) %0, ptr noundef nonnull align 8 dereferenceable(34) %24)
  %25 = add nuw i32 %.08, 1
  %exitcond.not = icmp eq i32 %25, %5
  br i1 %exitcond.not, label %.critedge, label %.lr.ph, !llvm.loop !44
}